target datalayout = "e-m:e-p270:32:32-p271:32:32-p272:64:64-i64:64-i128:128-f80:128-n8:16:32:64-S128"
target triple = "x86_64-pc-linux-gnu"

@proto_bpsec = internal global i32 0, align 4
@.str.51 = private unnamed_addr constant [5 x i8] c"cbor\00", align 1
@handle_cbor = internal global ptr null, align 8
@.str.52 = private unnamed_addr constant [22 x i8] c"Block Integrity Block\00", align 1
@.str.53 = private unnamed_addr constant [16 x i8] c"bpv7.block_type\00", align 1
@.str.54 = private unnamed_addr constant [28 x i8] c"Block Confidentiality Block\00", align 1

; Function Attrs: nounwind null_pointer_is_valid sspstrong uwtable
define internal void @reinit_bpsec() #7 {
  ret void
}

; Function Attrs: null_pointer_is_valid sspstrong uwtable
define hidden void @proto_reg_handoff_bpsec() #0 {
  %1 = alloca ptr, align 8
  %2 = alloca i64, align 8
  %3 = alloca i64, align 8
  %4 = alloca ptr, align 8
  %5 = alloca ptr, align 8
  %6 = alloca ptr, align 8
  %7 = alloca ptr, align 8
  %8 = alloca i64, align 8
  %9 = alloca i64, align 8
  %10 = alloca ptr, align 8
  %11 = alloca ptr, align 8
  %12 = alloca ptr, align 8
  %13 = call ptr @find_dissector(ptr noundef @.str.51)
  store ptr %13, ptr @handle_cbor, align 8
  call void @llvm.lifetime.start.p0(i64 8, ptr %1) #10
  call void @llvm.lifetime.start.p0(i64 8, ptr %2) #10
  store i64 1, ptr %2, align 8
  call void @llvm.lifetime.start.p0(i64 8, ptr %3) #10
  store i64 8, ptr %3, align 8
  call void @llvm.lifetime.start.p0(i64 8, ptr %4) #10
  %14 = load i64, ptr %3, align 8
  %15 = icmp eq i64 %14, 1
  br i1 %15, label %16, label %19

16:                                               ; preds = %0
  %17 = load i64, ptr %2, align 8
  %18 = call noalias ptr @g_malloc(i64 noundef %17) #12
  store ptr %18, ptr %4, align 8
  br label %40

19:                                               ; preds = %0
  %20 = load i64, ptr %2, align 8
  %21 = call i1 @llvm.is.constant.i64(i64 %20)
  br i1 %21, label %22, label %35

22:                                               ; preds = %19
  %23 = load i64, ptr %3, align 8
  %24 = icmp eq i64 %23, 0
  br i1 %24, label %30, label %25

25:                                               ; preds = %22
  %26 = load i64, ptr %2, align 8
  %27 = load i64, ptr %3, align 8
  %28 = udiv i64 -1, %27
  %29 = icmp ule i64 %26, %28
  br i1 %29, label %30, label %35

30:                                               ; preds = %25, %22
  %31 = load i64, ptr %2, align 8
  %32 = load i64, ptr %3, align 8
  %33 = mul i64 %31, %32
  %34 = call noalias ptr @g_malloc(i64 noundef %33) #12
  store ptr %34, ptr %4, align 8
  br label %39

35:                                               ; preds = %25, %19
  %36 = load i64, ptr %2, align 8
  %37 = load i64, ptr %3, align 8
  %38 = call noalias ptr @g_malloc_n(i64 noundef %36, i64 noundef %37) #13
  store ptr %38, ptr %4, align 8
  br label %39

39:                                               ; preds = %35, %30
  br label %40

40:                                               ; preds = %39, %16
  %41 = load ptr, ptr %4, align 8
  store ptr %41, ptr %5, align 8
  call void @llvm.lifetime.end.p0(i64 8, ptr %4) #10
  call void @llvm.lifetime.end.p0(i64 8, ptr %3) #10
  call void @llvm.lifetime.end.p0(i64 8, ptr %2) #10
  %42 = load ptr, ptr %5, align 8
  store ptr %42, ptr %1, align 8
  %43 = load ptr, ptr %1, align 8
  store i64 11, ptr %43, align 8
  call void @llvm.lifetime.start.p0(i64 8, ptr %6) #10
  %44 = load i32, ptr @proto_bpsec, align 4
  %45 = call ptr @create_dissector_handle_with_name_and_description(ptr noundef @dissect_block_bib, i32 noundef %44, ptr noundef null, ptr noundef @.str.52)
  store ptr %45, ptr %6, align 8
  %46 = load ptr, ptr %1, align 8
  %47 = load ptr, ptr %6, align 8
  call void @dissector_add_custom_table_handle(ptr noundef @.str.53, ptr noundef %46, ptr noundef %47)
  call void @llvm.lifetime.end.p0(i64 8, ptr %6) #10
  call void @llvm.lifetime.end.p0(i64 8, ptr %1) #10
  call void @llvm.lifetime.start.p0(i64 8, ptr %7) #10
  call void @llvm.lifetime.start.p0(i64 8, ptr %8) #10
  store i64 1, ptr %8, align 8
  call void @llvm.lifetime.start.p0(i64 8, ptr %9) #10
  store i64 8, ptr %9, align 8
  call void @llvm.lifetime.start.p0(i64 8, ptr %10) #10
  %48 = load i64, ptr %9, align 8
  %49 = icmp eq i64 %48, 1
  br i1 %49, label %50, label %53

50:                                               ; preds = %40
  %51 = load i64, ptr %8, align 8
  %52 = call noalias ptr @g_malloc(i64 noundef %51) #12
  store ptr %52, ptr %10, align 8
  br label %74

53:                                               ; preds = %40
  %54 = load i64, ptr %8, align 8
  %55 = call i1 @llvm.is.constant.i64(i64 %54)
  br i1 %55, label %56, label %69

56:                                               ; preds = %53
  %57 = load i64, ptr %9, align 8
  %58 = icmp eq i64 %57, 0
  br i1 %58, label %64, label %59

59:                                               ; preds = %56
  %60 = load i64, ptr %8, align 8
  %61 = load i64, ptr %9, align 8
  %62 = udiv i64 -1, %61
  %63 = icmp ule i64 %60, %62
  br i1 %63, label %64, label %69

64:                                               ; preds = %59, %56
  %65 = load i64, ptr %8, align 8
  %66 = load i64, ptr %9, align 8
  %67 = mul i64 %65, %66
  %68 = call noalias ptr @g_malloc(i64 noundef %67) #12
  store ptr %68, ptr %10, align 8
  br label %73

69:                                               ; preds = %59, %53
  %70 = load i64, ptr %8, align 8
  %71 = load i64, ptr %9, align 8
  %72 = call noalias ptr @g_malloc_n(i64 noundef %70, i64 noundef %71) #13
  store ptr %72, ptr %10, align 8
  br label %73

73:                                               ; preds = %69, %64
  br label %74

74:                                               ; preds = %73, %50
  %75 = load ptr, ptr %10, align 8
  store ptr %75, ptr %11, align 8
  call void @llvm.lifetime.end.p0(i64 8, ptr %10) #10
  call void @llvm.lifetime.end.p0(i64 8, ptr %9) #10
  call void @llvm.lifetime.end.p0(i64 8, ptr %8) #10
  %76 = load ptr, ptr %11, align 8
  store ptr %76, ptr %7, align 8
  %77 = load ptr, ptr %7, align 8
  store i64 12, ptr %77, align 8
  call void @llvm.lifetime.start.p0(i64 8, ptr %12) #10
  %78 = load i32, ptr @proto_bpsec, align 4
  %79 = call ptr @create_dissector_handle_with_name_and_description(ptr noundef @dissect_block_bcb, i32 noundef %78, ptr noundef null, ptr noundef @.str.54)
  store ptr %79, ptr %12, align 8
  %80 = load ptr, ptr %7, align 8
  %81 = load ptr, ptr %12, align 8
  call void @dissector_add_custom_table_handle(ptr noundef @.str.53, ptr noundef %80, ptr noundef %81)
  call void @llvm.lifetime.end.p0(i64 8, ptr %12) #10
  call void @llvm.lifetime.end.p0(i64 8, ptr %7) #10
  call void @reinit_bpsec()
  ret void
}