; Function Attrs: null_pointer_is_valid sspstrong uwtable
define hidden void @proto_reg_handoff_bpsec() local_unnamed_addr #0 {
  %1 = tail call ptr @find_dissector(ptr noundef nonnull @.str.51)
  store ptr %1, ptr @handle_cbor, align 8
  %2 = tail call noalias dereferenceable_or_null(8) ptr @g_malloc(i64 noundef 8) #9
  store i64 11, ptr %2, align 8
  %3 = load i32, ptr @proto_bpsec, align 4
  %4 = tail call ptr @create_dissector_handle_with_name_and_description(ptr noundef nonnull @dissect_block_bib, i32 noundef %3, ptr noundef null, ptr noundef nonnull @.str.52)
  tail call void @dissector_add_custom_table_handle(ptr noundef nonnull @.str.53, ptr noundef %2, ptr noundef %4)
  %5 = tail call noalias dereferenceable_or_null(8) ptr @g_malloc(i64 noundef 8) #9
  store i64 12, ptr %5, align 8
  %6 = load i32, ptr @proto_bpsec, align 4
  %7 = tail call ptr @create_dissector_handle_with_name_and_description(ptr noundef nonnull @dissect_block_bcb, i32 noundef %6, ptr noundef null, ptr noundef nonnull @.str.54)
  tail call void @dissector_add_custom_table_handle(ptr noundef nonnull @.str.53, ptr noundef %5, ptr noundef %7)
  ret void
}